target datalayout = "e-m:e-p270:32:32-p271:32:32-p272:64:64-i64:64-i128:128-f80:128-n8:16:32:64-S128"
target triple = "x86_64-pc-linux-gnu"

%struct._object = type { %union.anon, ptr }
%union.anon = type { i64 }
%struct._typeobject = type { %struct.PyVarObject, ptr, i64, i64, ptr, i64, ptr, ptr, ptr, ptr, ptr, ptr, ptr, ptr, ptr, ptr, ptr, ptr, ptr, i64, ptr, ptr, ptr, ptr, i64, ptr, ptr, ptr, ptr, ptr, ptr, ptr, ptr, ptr, i64, ptr, ptr, ptr, ptr, ptr, ptr, ptr, ptr, ptr, ptr, ptr, i32, ptr, ptr, i8, i16 }
%struct.PyVarObject = type { %struct._object, i64 }
%struct.PyByteArrayObject = type { %struct.PyVarObject, i64, ptr, ptr, i64 }

@.str.61 = private unnamed_addr constant [5 x i8] c"O|sY\00", align 1
@.str.62 = private unnamed_addr constant [4 x i8] c"es#\00", align 1
@PyByteArray_Type = external global %struct._typeobject, align 8
@.str.63 = private unnamed_addr constant [22 x i8] c"PyByteArray_Check(op)\00", align 1
@.str.64 = private unnamed_addr constant [45 x i8] c"../cpython/Include/cpython/bytearrayobject.h\00", align 1
@__PRETTY_FUNCTION__.PyByteArray_AS_STRING = private unnamed_addr constant [40 x i8] c"char *PyByteArray_AS_STRING(PyObject *)\00", align 1
@_PyByteArray_empty_string = external global [0 x i8], align 1
@PyLong_Type = external global %struct._typeobject, align 8
@.str.65 = private unnamed_addr constant [28 x i8] c"Py_TYPE(ob) != &PyLong_Type\00", align 1
@.str.66 = private unnamed_addr constant [28 x i8] c"../cpython/Include/object.h\00", align 1
@__PRETTY_FUNCTION__.Py_SIZE = private unnamed_addr constant [31 x i8] c"Py_ssize_t Py_SIZE(PyObject *)\00", align 1
@PyBool_Type = external global %struct._typeobject, align 8
@.str.67 = private unnamed_addr constant [28 x i8] c"Py_TYPE(ob) != &PyBool_Type\00", align 1
@__PRETTY_FUNCTION__.PyByteArray_GET_SIZE = private unnamed_addr constant [44 x i8] c"Py_ssize_t PyByteArray_GET_SIZE(PyObject *)\00", align 1

; Function Attrs: inlinehint nounwind uwtable
define internal ptr @_Py_TYPE(ptr noundef %0) #2 {
  %2 = alloca ptr, align 8
  store ptr %0, ptr %2, align 8, !tbaa !3
  %3 = load ptr, ptr %2, align 8, !tbaa !3
  %4 = getelementptr inbounds nuw %struct._object, ptr %3, i32 0, i32 1
  %5 = load ptr, ptr %4, align 8, !tbaa !44
  ret ptr %5
}

; Function Attrs: inlinehint nounwind uwtable
define internal i32 @Py_IS_TYPE(ptr noundef %0, ptr noundef %1) #2 {
  %3 = alloca ptr, align 8
  %4 = alloca ptr, align 8
  store ptr %0, ptr %3, align 8, !tbaa !3
  store ptr %1, ptr %4, align 8, !tbaa !42
  %5 = load ptr, ptr %3, align 8, !tbaa !3
  %6 = call ptr @_Py_TYPE(ptr noundef %5)
  %7 = load ptr, ptr %4, align 8, !tbaa !42
  %8 = icmp eq ptr %6, %7
  %9 = zext i1 %8 to i32
  ret i32 %9
}

; Function Attrs: inlinehint nounwind uwtable
define internal i64 @Py_SIZE(ptr noundef %0) #2 {
  %2 = alloca ptr, align 8
  store ptr %0, ptr %2, align 8, !tbaa !3
  %3 = load ptr, ptr %2, align 8, !tbaa !3
  %4 = call ptr @_Py_TYPE(ptr noundef %3)
  %5 = icmp ne ptr %4, @PyLong_Type
  br i1 %5, label %6, label %7

6:                                                ; preds = %1
  br label %9

7:                                                ; preds = %1
  call void @__assert_fail(ptr noundef @.str.65, ptr noundef @.str.66, i32 noundef 282, ptr noundef @__PRETTY_FUNCTION__.Py_SIZE) #10
  unreachable

8:                                                ; No predecessors!
  br label %9

9:                                                ; preds = %8, %6
  %10 = load ptr, ptr %2, align 8, !tbaa !3
  %11 = call ptr @_Py_TYPE(ptr noundef %10)
  %12 = icmp ne ptr %11, @PyBool_Type
  br i1 %12, label %13, label %14

13:                                               ; preds = %9
  br label %16

14:                                               ; preds = %9
  call void @__assert_fail(ptr noundef @.str.67, ptr noundef @.str.66, i32 noundef 283, ptr noundef @__PRETTY_FUNCTION__.Py_SIZE) #10
  unreachable

15:                                               ; No predecessors!
  br label %16

16:                                               ; preds = %15, %13
  %17 = load ptr, ptr %2, align 8, !tbaa !3
  %18 = getelementptr inbounds nuw %struct.PyVarObject, ptr %17, i32 0, i32 1
  %19 = load i64, ptr %18, align 8, !tbaa !43
  ret i64 %19
}

; Function Attrs: inlinehint nounwind uwtable
define internal i32 @PyObject_TypeCheck(ptr noundef %0, ptr noundef %1) #2 {
  %3 = alloca ptr, align 8
  %4 = alloca ptr, align 8
  store ptr %0, ptr %3, align 8, !tbaa !3
  store ptr %1, ptr %4, align 8, !tbaa !42
  %5 = load ptr, ptr %3, align 8, !tbaa !3
  %6 = load ptr, ptr %4, align 8, !tbaa !42
  %7 = call i32 @Py_IS_TYPE(ptr noundef %5, ptr noundef %6)
  %8 = icmp ne i32 %7, 0
  br i1 %8, label %15, label %9

9:                                                ; preds = %2
  %10 = load ptr, ptr %3, align 8, !tbaa !3
  %11 = call ptr @_Py_TYPE(ptr noundef %10)
  %12 = load ptr, ptr %4, align 8, !tbaa !42
  %13 = call i32 @PyType_IsSubtype(ptr noundef %11, ptr noundef %12)
  %14 = icmp ne i32 %13, 0
  br label %15

15:                                               ; preds = %9, %2
  %16 = phi i1 [ true, %2 ], [ %14, %9 ]
  %17 = zext i1 %16 to i32
  ret i32 %17
}

; Function Attrs: inlinehint nounwind uwtable
define internal i64 @PyByteArray_GET_SIZE(ptr noundef %0) #2 {
  %2 = alloca ptr, align 8
  %3 = alloca ptr, align 8
  store ptr %0, ptr %2, align 8, !tbaa !3
  call void @llvm.lifetime.start.p0(i64 8, ptr %3) #9
  %4 = load ptr, ptr %2, align 8, !tbaa !3
  %5 = call i32 @PyObject_TypeCheck(ptr noundef %4, ptr noundef @PyByteArray_Type)
  %6 = icmp ne i32 %5, 0
  br i1 %6, label %7, label %8

7:                                                ; preds = %1
  br label %10

8:                                                ; preds = %1
  call void @__assert_fail(ptr noundef @.str.63, ptr noundef @.str.64, i32 noundef 31, ptr noundef @__PRETTY_FUNCTION__.PyByteArray_GET_SIZE) #10
  unreachable

9:                                                ; No predecessors!
  br label %10

10:                                               ; preds = %9, %7
  %11 = load ptr, ptr %2, align 8, !tbaa !3
  store ptr %11, ptr %3, align 8, !tbaa !19
  %12 = load ptr, ptr %3, align 8, !tbaa !19
  %13 = call i64 @Py_SIZE(ptr noundef %12)
  call void @llvm.lifetime.end.p0(i64 8, ptr %3) #9
  ret i64 %13
}

; Function Attrs: inlinehint nounwind uwtable
define internal ptr @PyByteArray_AS_STRING(ptr noundef %0) #2 {
  %2 = alloca ptr, align 8
  %3 = alloca ptr, align 8
  %4 = alloca ptr, align 8
  %5 = alloca i32, align 4
  store ptr %0, ptr %3, align 8, !tbaa !3
  call void @llvm.lifetime.start.p0(i64 8, ptr %4) #9
  %6 = load ptr, ptr %3, align 8, !tbaa !3
  %7 = call i32 @PyObject_TypeCheck(ptr noundef %6, ptr noundef @PyByteArray_Type)
  %8 = icmp ne i32 %7, 0
  br i1 %8, label %9, label %10

9:                                                ; preds = %1
  br label %12

10:                                               ; preds = %1
  call void @__assert_fail(ptr noundef @.str.63, ptr noundef @.str.64, i32 noundef 22, ptr noundef @__PRETTY_FUNCTION__.PyByteArray_AS_STRING) #10
  unreachable

11:                                               ; No predecessors!
  br label %12

12:                                               ; preds = %11, %9
  %13 = load ptr, ptr %3, align 8, !tbaa !3
  store ptr %13, ptr %4, align 8, !tbaa !19
  %14 = load ptr, ptr %4, align 8, !tbaa !19
  %15 = call i64 @Py_SIZE(ptr noundef %14)
  %16 = icmp ne i64 %15, 0
  br i1 %16, label %17, label %21

17:                                               ; preds = %12
  %18 = load ptr, ptr %4, align 8, !tbaa !19
  %19 = getelementptr inbounds nuw %struct.PyByteArrayObject, ptr %18, i32 0, i32 3
  %20 = load ptr, ptr %19, align 8, !tbaa !40
  store ptr %20, ptr %2, align 8
  store i32 1, ptr %5, align 4
  br label %22

21:                                               ; preds = %12
  store ptr @_PyByteArray_empty_string, ptr %2, align 8
  store i32 1, ptr %5, align 4
  br label %22

22:                                               ; preds = %21, %17
  call void @llvm.lifetime.end.p0(i64 8, ptr %4) #9
  %23 = load ptr, ptr %2, align 8
  ret ptr %23
}

; Function Attrs: nounwind uwtable
define internal ptr @getargs_es_hash(ptr noundef %0, ptr noundef %1) #0 {
  %3 = alloca ptr, align 8
  %4 = alloca ptr, align 8
  %5 = alloca ptr, align 8
  %6 = alloca ptr, align 8
  %7 = alloca ptr, align 8
  %8 = alloca ptr, align 8
  %9 = alloca ptr, align 8
  %10 = alloca i64, align 8
  %11 = alloca i32, align 4
  %12 = alloca ptr, align 8
  store ptr %0, ptr %4, align 8, !tbaa !3
  store ptr %1, ptr %5, align 8, !tbaa !3
  call void @llvm.lifetime.start.p0(i64 8, ptr %6) #9
  call void @llvm.lifetime.start.p0(i64 8, ptr %7) #9
  store ptr null, ptr %7, align 8, !tbaa !17
  call void @llvm.lifetime.start.p0(i64 8, ptr %8) #9
  store ptr null, ptr %8, align 8, !tbaa !19
  call void @llvm.lifetime.start.p0(i64 8, ptr %9) #9
  store ptr null, ptr %9, align 8, !tbaa !17
  call void @llvm.lifetime.start.p0(i64 8, ptr %10) #9
  %13 = load ptr, ptr %5, align 8, !tbaa !3
  %14 = call i32 (ptr, ptr, ...) @PyArg_ParseTuple(ptr noundef %13, ptr noundef @.str.61, ptr noundef %6, ptr noundef %7, ptr noundef %8)
  %15 = icmp ne i32 %14, 0
  br i1 %15, label %17, label %16

16:                                               ; preds = %2
  store ptr null, ptr %3, align 8
  store i32 1, ptr %11, align 4
  br label %41

17:                                               ; preds = %2
  %18 = load ptr, ptr %8, align 8, !tbaa !19
  %19 = icmp ne ptr %18, null
  br i1 %19, label %20, label %25

20:                                               ; preds = %17
  %21 = load ptr, ptr %8, align 8, !tbaa !19
  %22 = call ptr @PyByteArray_AS_STRING(ptr noundef %21)
  store ptr %22, ptr %9, align 8, !tbaa !17
  %23 = load ptr, ptr %8, align 8, !tbaa !19
  %24 = call i64 @PyByteArray_GET_SIZE(ptr noundef %23)
  store i64 %24, ptr %10, align 8, !tbaa !20
  br label %25

25:                                               ; preds = %20, %17
  %26 = load ptr, ptr %6, align 8, !tbaa !3
  %27 = load ptr, ptr %7, align 8, !tbaa !17
  %28 = call i32 (ptr, ptr, ...) @PyArg_Parse(ptr noundef %26, ptr noundef @.str.62, ptr noundef %27, ptr noundef %9, ptr noundef %10)
  %29 = icmp ne i32 %28, 0
  br i1 %29, label %31, label %30

30:                                               ; preds = %25
  store ptr null, ptr %3, align 8
  store i32 1, ptr %11, align 4
  br label %41

31:                                               ; preds = %25
  call void @llvm.lifetime.start.p0(i64 8, ptr %12) #9
  %32 = load ptr, ptr %9, align 8, !tbaa !17
  %33 = load i64, ptr %10, align 8, !tbaa !20
  %34 = call ptr @PyBytes_FromStringAndSize(ptr noundef %32, i64 noundef %33)
  store ptr %34, ptr %12, align 8, !tbaa !3
  %35 = load ptr, ptr %8, align 8, !tbaa !19
  %36 = icmp eq ptr %35, null
  br i1 %36, label %37, label %39

37:                                               ; preds = %31
  %38 = load ptr, ptr %9, align 8, !tbaa !17
  call void @PyMem_Free(ptr noundef %38)
  br label %39

39:                                               ; preds = %37, %31
  %40 = load ptr, ptr %12, align 8, !tbaa !3
  store ptr %40, ptr %3, align 8
  store i32 1, ptr %11, align 4
  call void @llvm.lifetime.end.p0(i64 8, ptr %12) #9
  br label %41

41:                                               ; preds = %39, %30, %16
  call void @llvm.lifetime.end.p0(i64 8, ptr %10) #9
  call void @llvm.lifetime.end.p0(i64 8, ptr %9) #9
  call void @llvm.lifetime.end.p0(i64 8, ptr %8) #9
  call void @llvm.lifetime.end.p0(i64 8, ptr %7) #9
  call void @llvm.lifetime.end.p0(i64 8, ptr %6) #9
  %42 = load ptr, ptr %3, align 8
  ret ptr %42
}